target datalayout = "e-m:e-p270:32:32-p271:32:32-p272:64:64-i64:64-i128:128-f80:128-n8:16:32:64-S128"
target triple = "x86_64-pc-linux-gnu"

@.str.75 = private unnamed_addr constant [2 x i8] c".\00", align 1
@.str.76 = private unnamed_addr constant [2 x i8] c"/\00", align 1
@.str.77 = private unnamed_addr constant [3 x i8] c"./\00", align 1

; Function Attrs: nounwind uwtable
define i32 @H5LTpath_valid(i64 noundef %0, ptr noundef %1, i1 noundef zeroext %2) #0 {
  %4 = alloca i64, align 8
  %5 = alloca ptr, align 8
  %6 = alloca i8, align 1
  %7 = alloca ptr, align 8
  %8 = alloca ptr, align 8
  %9 = alloca ptr, align 8
  %10 = alloca i32, align 4
  %11 = alloca i32, align 4
  %12 = alloca i32, align 4
  %13 = alloca i64, align 8
  %14 = alloca i32, align 4
  store i64 %0, ptr %4, align 8, !tbaa !3
  store ptr %1, ptr %5, align 8, !tbaa !7
  %15 = zext i1 %2 to i8
  store i8 %15, ptr %6, align 1, !tbaa !16
  call void @llvm.lifetime.start.p0(i64 8, ptr %7) #11
  store ptr null, ptr %7, align 8, !tbaa !7
  call void @llvm.lifetime.start.p0(i64 8, ptr %8) #11
  call void @llvm.lifetime.start.p0(i64 8, ptr %9) #11
  call void @llvm.lifetime.start.p0(i64 4, ptr %10) #11
  call void @llvm.lifetime.start.p0(i64 4, ptr %11) #11
  call void @llvm.lifetime.start.p0(i64 4, ptr %12) #11
  call void @llvm.lifetime.start.p0(i64 8, ptr %13) #11
  call void @llvm.lifetime.start.p0(i64 4, ptr %14) #11
  store i32 0, ptr %14, align 4, !tbaa !10
  %16 = load ptr, ptr %5, align 8, !tbaa !7
  %17 = icmp eq ptr %16, null
  br i1 %17, label %18, label %19

18:                                               ; preds = %3
  store i32 -1, ptr %14, align 4, !tbaa !10
  br label %116

19:                                               ; preds = %3
  %20 = load i64, ptr %4, align 8, !tbaa !3
  %21 = call i32 @H5Iget_type(i64 noundef %20)
  store i32 %21, ptr %10, align 4, !tbaa !10
  %22 = icmp eq i32 %21, -1
  br i1 %22, label %23, label %24

23:                                               ; preds = %19
  store i32 -1, ptr %14, align 4, !tbaa !10
  br label %116

24:                                               ; preds = %19
  %25 = load ptr, ptr %5, align 8, !tbaa !7
  %26 = call i64 @strlen(ptr noundef %25) #12
  store i64 %26, ptr %13, align 8, !tbaa !3
  %27 = load ptr, ptr %5, align 8, !tbaa !7
  %28 = load i64, ptr %13, align 8, !tbaa !3
  %29 = call i32 @strncmp(ptr noundef %27, ptr noundef @.str.75, i64 noundef %28) #12
  %30 = icmp eq i32 %29, 0
  br i1 %30, label %31, label %40

31:                                               ; preds = %24
  %32 = load i8, ptr %6, align 1, !tbaa !16, !range !18, !noundef !19
  %33 = trunc i8 %32 to i1
  br i1 %33, label %34, label %39

34:                                               ; preds = %31
  %35 = load i64, ptr %4, align 8, !tbaa !3
  %36 = load ptr, ptr %5, align 8, !tbaa !7
  %37 = call i32 @H5Oexists_by_name(i64 noundef %35, ptr noundef %36, i64 noundef 0)
  store i32 %37, ptr %12, align 4, !tbaa !10
  %38 = load i32, ptr %12, align 4, !tbaa !10
  store i32 %38, ptr %14, align 4, !tbaa !10
  br label %116

39:                                               ; preds = %31
  store i32 1, ptr %14, align 4, !tbaa !10
  br label %116

40:                                               ; preds = %24
  %41 = load ptr, ptr %5, align 8, !tbaa !7
  %42 = call noalias ptr @strdup(ptr noundef %41) #11
  store ptr %42, ptr %7, align 8, !tbaa !7
  %43 = icmp eq ptr null, %42
  br i1 %43, label %44, label %45

44:                                               ; preds = %40
  store i32 -1, ptr %14, align 4, !tbaa !10
  br label %116

45:                                               ; preds = %40
  %46 = load ptr, ptr %7, align 8, !tbaa !7
  store ptr %46, ptr %8, align 8, !tbaa !7
  %47 = load ptr, ptr %5, align 8, !tbaa !7
  %48 = call i32 @strncmp(ptr noundef %47, ptr noundef @.str.76, i64 noundef 1) #12
  %49 = icmp eq i32 %48, 0
  br i1 %49, label %50, label %53

50:                                               ; preds = %45
  %51 = load ptr, ptr %8, align 8, !tbaa !7
  %52 = getelementptr inbounds nuw i8, ptr %51, i32 1
  store ptr %52, ptr %8, align 8, !tbaa !7
  br label %53

53:                                               ; preds = %50, %45
  %54 = load ptr, ptr %5, align 8, !tbaa !7
  %55 = call i32 @strncmp(ptr noundef %54, ptr noundef @.str.77, i64 noundef 2) #12
  %56 = icmp eq i32 %55, 0
  br i1 %56, label %57, label %60

57:                                               ; preds = %53
  %58 = load ptr, ptr %8, align 8, !tbaa !7
  %59 = getelementptr inbounds i8, ptr %58, i64 2
  store ptr %59, ptr %8, align 8, !tbaa !7
  br label %60

60:                                               ; preds = %57, %53
  br label %61

61:                                               ; preds = %86, %60
  %62 = load ptr, ptr %8, align 8, !tbaa !7
  %63 = call ptr @strchr(ptr noundef %62, i32 noundef 47) #12
  store ptr %63, ptr %9, align 8, !tbaa !7
  %64 = icmp ne ptr %63, null
  br i1 %64, label %65, label %90

65:                                               ; preds = %61
  %66 = load ptr, ptr %9, align 8, !tbaa !7
  store i8 0, ptr %66, align 1, !tbaa !15
  store i32 0, ptr %12, align 4, !tbaa !10
  %67 = load i64, ptr %4, align 8, !tbaa !3
  %68 = load ptr, ptr %7, align 8, !tbaa !7
  %69 = call i32 @H5Lexists(i64 noundef %67, ptr noundef %68, i64 noundef 0)
  store i32 %69, ptr %11, align 4, !tbaa !10
  %70 = icmp slt i32 %69, 0
  br i1 %70, label %71, label %72

71:                                               ; preds = %65
  store i32 -1, ptr %14, align 4, !tbaa !10
  br label %116

72:                                               ; preds = %65
  %73 = load i32, ptr %11, align 4, !tbaa !10
  %74 = icmp ne i32 %73, 1
  br i1 %74, label %75, label %76

75:                                               ; preds = %72
  store i32 0, ptr %14, align 4, !tbaa !10
  br label %116

76:                                               ; preds = %72
  %77 = load i64, ptr %4, align 8, !tbaa !3
  %78 = load ptr, ptr %7, align 8, !tbaa !7
  %79 = call i32 @H5Oexists_by_name(i64 noundef %77, ptr noundef %78, i64 noundef 0)
  store i32 %79, ptr %12, align 4, !tbaa !10
  %80 = icmp slt i32 %79, 0
  br i1 %80, label %81, label %82

81:                                               ; preds = %76
  store i32 -1, ptr %14, align 4, !tbaa !10
  br label %116

82:                                               ; preds = %76
  %83 = load i32, ptr %12, align 4, !tbaa !10
  %84 = icmp ne i32 %83, 1
  br i1 %84, label %85, label %86

85:                                               ; preds = %82
  br label %90

86:                                               ; preds = %82
  %87 = load ptr, ptr %9, align 8, !tbaa !7
  store i8 47, ptr %87, align 1, !tbaa !15
  %88 = load ptr, ptr %9, align 8, !tbaa !7
  %89 = getelementptr inbounds i8, ptr %88, i64 1
  store ptr %89, ptr %8, align 8, !tbaa !7
  br label %61, !llvm.loop !56

90:                                               ; preds = %85, %61
  %91 = load i64, ptr %4, align 8, !tbaa !3
  %92 = load ptr, ptr %7, align 8, !tbaa !7
  %93 = call i32 @H5Lexists(i64 noundef %91, ptr noundef %92, i64 noundef 0)
  store i32 %93, ptr %11, align 4, !tbaa !10
  %94 = icmp slt i32 %93, 0
  br i1 %94, label %95, label %96

95:                                               ; preds = %90
  store i32 -1, ptr %14, align 4, !tbaa !10
  br label %115

96:                                               ; preds = %90
  %97 = load i32, ptr %11, align 4, !tbaa !10
  store i32 %97, ptr %14, align 4, !tbaa !10
  %98 = load i8, ptr %6, align 1, !tbaa !16, !range !18, !noundef !19
  %99 = trunc i8 %98 to i1
  %100 = zext i1 %99 to i32
  %101 = icmp eq i32 %100, 1
  br i1 %101, label %102, label %114

102:                                              ; preds = %96
  %103 = load i32, ptr %11, align 4, !tbaa !10
  %104 = icmp eq i32 %103, 1
  br i1 %104, label %105, label %114

105:                                              ; preds = %102
  %106 = load i64, ptr %4, align 8, !tbaa !3
  %107 = load ptr, ptr %7, align 8, !tbaa !7
  %108 = call i32 @H5Oexists_by_name(i64 noundef %106, ptr noundef %107, i64 noundef 0)
  store i32 %108, ptr %12, align 4, !tbaa !10
  %109 = icmp slt i32 %108, 0
  br i1 %109, label %110, label %111

110:                                              ; preds = %105
  store i32 -1, ptr %14, align 4, !tbaa !10
  br label %113

111:                                              ; preds = %105
  %112 = load i32, ptr %12, align 4, !tbaa !10
  store i32 %112, ptr %14, align 4, !tbaa !10
  br label %113

113:                                              ; preds = %111, %110
  br label %114

114:                                              ; preds = %113, %102, %96
  br label %115

115:                                              ; preds = %114, %95
  br label %116

116:                                              ; preds = %115, %81, %75, %71, %44, %39, %34, %23, %18
  %117 = load ptr, ptr %7, align 8, !tbaa !7
  %118 = icmp ne ptr %117, null
  br i1 %118, label %119, label %121

119:                                              ; preds = %116
  %120 = load ptr, ptr %7, align 8, !tbaa !7
  call void @free(ptr noundef %120) #11
  br label %121

121:                                              ; preds = %119, %116
  %122 = load i32, ptr %14, align 4, !tbaa !10
  call void @llvm.lifetime.end.p0(i64 4, ptr %14) #11
  call void @llvm.lifetime.end.p0(i64 8, ptr %13) #11
  call void @llvm.lifetime.end.p0(i64 4, ptr %12) #11
  call void @llvm.lifetime.end.p0(i64 4, ptr %11) #11
  call void @llvm.lifetime.end.p0(i64 4, ptr %10) #11
  call void @llvm.lifetime.end.p0(i64 8, ptr %9) #11
  call void @llvm.lifetime.end.p0(i64 8, ptr %8) #11
  call void @llvm.lifetime.end.p0(i64 8, ptr %7) #11
  ret i32 %122
}