; Function Attrs: nounwind uwtable
define i32 @H5LTpath_valid(i64 noundef %0, ptr noundef %1, i1 noundef zeroext %2) local_unnamed_addr #0 {
  %4 = icmp eq ptr %1, null
  br i1 %4, label %41, label %5

5:                                                ; preds = %3
  %6 = tail call i32 @H5Iget_type(i64 noundef %0) #20
  %7 = icmp eq i32 %6, -1
  br i1 %7, label %41, label %8

8:                                                ; preds = %5
  %9 = tail call i64 @strlen(ptr noundef nonnull dereferenceable(1) %1) #21
  %10 = tail call i32 @strncmp(ptr noundef nonnull %1, ptr noundef nonnull @.str.75, i64 noundef %9) #21
  %11 = icmp eq i32 %10, 0
  br i1 %11, label %12, label %15

12:                                               ; preds = %8
  br i1 %2, label %13, label %41

13:                                               ; preds = %12
  %14 = tail call i32 @H5Oexists_by_name(i64 noundef %0, ptr noundef nonnull %1, i64 noundef 0) #20
  br label %41

15:                                               ; preds = %8
  %16 = tail call noalias ptr @strdup(ptr noundef nonnull %1) #20
  %17 = icmp eq ptr %16, null
  br i1 %17, label %41, label %sub_0

sub_0:                                            ; preds = %15
  %lhsc = load i8, ptr %1, align 1
  %18 = icmp eq i8 %lhsc, 47
  %spec.select.idx = zext i1 %18 to i64
  %spec.select = getelementptr inbounds nuw i8, ptr %16, i64 %spec.select.idx
  %.not57 = icmp eq i8 %lhsc, 46
  br i1 %.not57, label %sub_1, label %.tail

sub_1:                                            ; preds = %sub_0
  %19 = getelementptr inbounds nuw i8, ptr %1, i64 1
  %20 = load i8, ptr %19, align 1
  %21 = icmp eq i8 %20, 47
  %22 = select i1 %21, i64 2, i64 0
  br label %.tail

.tail:                                            ; preds = %sub_0, %sub_1
  %.1.idx = phi i64 [ 0, %sub_0 ], [ %22, %sub_1 ]
  %.1 = getelementptr inbounds nuw i8, ptr %spec.select, i64 %.1.idx
  %23 = tail call ptr @strchr(ptr noundef nonnull dereferenceable(1) %.1, i32 noundef 47) #21
  %.not55 = icmp eq ptr %23, null
  br i1 %.not55, label %._crit_edge, label %.lr.ph

.lr.ph:                                           ; preds = %.tail, %32
  %24 = phi ptr [ %34, %32 ], [ %23, %.tail ]
  store i8 0, ptr %24, align 1, !tbaa !7
  %25 = tail call i32 @H5Lexists(i64 noundef %0, ptr noundef nonnull %16, i64 noundef 0) #20
  %26 = icmp slt i32 %25, 0
  br i1 %26, label %.loopexit, label %27

27:                                               ; preds = %.lr.ph
  %.not46 = icmp eq i32 %25, 1
  br i1 %.not46, label %28, label %.loopexit

28:                                               ; preds = %27
  %29 = tail call i32 @H5Oexists_by_name(i64 noundef %0, ptr noundef nonnull %16, i64 noundef 0) #20
  %30 = icmp slt i32 %29, 0
  br i1 %30, label %.loopexit, label %31

31:                                               ; preds = %28
  %.not47 = icmp eq i32 %29, 1
  br i1 %.not47, label %32, label %._crit_edge

32:                                               ; preds = %31
  store i8 47, ptr %24, align 1, !tbaa !7
  %33 = getelementptr inbounds nuw i8, ptr %24, i64 1
  %34 = tail call ptr @strchr(ptr noundef nonnull dereferenceable(1) %33, i32 noundef 47) #21
  %.not = icmp eq ptr %34, null
  br i1 %.not, label %._crit_edge, label %.lr.ph, !llvm.loop !41

._crit_edge:                                      ; preds = %32, %31, %.tail
  %35 = tail call i32 @H5Lexists(i64 noundef %0, ptr noundef nonnull %16, i64 noundef 0) #20
  %36 = icmp slt i32 %35, 0
  br i1 %36, label %.loopexit, label %37

37:                                               ; preds = %._crit_edge
  %38 = icmp eq i32 %35, 1
  %or.cond = and i1 %2, %38
  br i1 %or.cond, label %39, label %.loopexit

39:                                               ; preds = %37
  %40 = tail call i32 @H5Oexists_by_name(i64 noundef %0, ptr noundef nonnull %16, i64 noundef 0) #20
  %. = tail call i32 @llvm.smax.i32(i32 %40, i32 -1)
  br label %.loopexit

.loopexit:                                        ; preds = %.lr.ph, %27, %28, %37, %._crit_edge, %39
  %.0.ph = phi i32 [ %., %39 ], [ -1, %._crit_edge ], [ %35, %37 ], [ -1, %.lr.ph ], [ 0, %27 ], [ -1, %28 ]
  tail call void @free(ptr noundef nonnull %16) #20
  br label %41

41:                                               ; preds = %13, %3, %5, %12, %15, %.loopexit
  %.054 = phi i32 [ %.0.ph, %.loopexit ], [ %14, %13 ], [ -1, %3 ], [ -1, %5 ], [ 1, %12 ], [ -1, %15 ]
  ret i32 %.054
}